target datalayout = "e-m:e-p270:32:32-p271:32:32-p272:64:64-i64:64-i128:128-f80:128-n8:16:32:64-S128"
target triple = "x86_64-pc-linux-gnu"

%struct.ggml_backend_buffer_i = type { ptr, ptr, ptr, ptr, ptr, ptr, ptr, ptr, ptr }
%struct.ggml_backend_buffer = type { %struct.ggml_backend_buffer_i, ptr, ptr, i64, i32 }
%struct.ggml_backend_multi_buffer_context = type { ptr, i64 }

; Function Attrs: mustprogress uwtable
define void @ggml_backend_buffer_clear(ptr noundef %0, i8 noundef zeroext %1) #0 {
  %3 = alloca ptr, align 8
  %4 = alloca i8, align 1
  store ptr %0, ptr %3, align 8, !tbaa !24
  store i8 %1, ptr %4, align 1, !tbaa !36
  %5 = load ptr, ptr %3, align 8, !tbaa !24
  %6 = getelementptr inbounds nuw %struct.ggml_backend_buffer, ptr %5, i32 0, i32 3
  %7 = load i64, ptr %6, align 8, !tbaa !22
  %8 = icmp eq i64 %7, 0
  br i1 %8, label %9, label %10

9:                                                ; preds = %2
  br label %17

10:                                               ; preds = %2
  %11 = load ptr, ptr %3, align 8, !tbaa !24
  %12 = getelementptr inbounds nuw %struct.ggml_backend_buffer, ptr %11, i32 0, i32 0
  %13 = getelementptr inbounds nuw %struct.ggml_backend_buffer_i, ptr %12, i32 0, i32 7
  %14 = load ptr, ptr %13, align 8, !tbaa !37
  %15 = load ptr, ptr %3, align 8, !tbaa !24
  %16 = load i8, ptr %4, align 1, !tbaa !36
  call void %14(ptr noundef %15, i8 noundef zeroext %16)
  br label %17

17:                                               ; preds = %10, %9
  ret void
}

; Function Attrs: mustprogress uwtable
define internal void @_ZL31ggml_backend_multi_buffer_clearP19ggml_backend_bufferh(ptr noundef %0, i8 noundef zeroext %1) #0 {
  %3 = alloca ptr, align 8
  %4 = alloca i8, align 1
  %5 = alloca ptr, align 8
  %6 = alloca i64, align 8
  store ptr %0, ptr %3, align 8, !tbaa !24
  store i8 %1, ptr %4, align 1, !tbaa !36
  call void @llvm.lifetime.start.p0(i64 8, ptr %5) #15
  %7 = load ptr, ptr %3, align 8, !tbaa !24
  %8 = getelementptr inbounds nuw %struct.ggml_backend_buffer, ptr %7, i32 0, i32 2
  %9 = load ptr, ptr %8, align 8, !tbaa !21
  store ptr %9, ptr %5, align 8, !tbaa !39
  call void @llvm.lifetime.start.p0(i64 8, ptr %6) #15
  store i64 0, ptr %6, align 8, !tbaa !12
  br label %10

10:                                               ; preds = %25, %2
  %11 = load i64, ptr %6, align 8, !tbaa !12
  %12 = load ptr, ptr %5, align 8, !tbaa !39
  %13 = getelementptr inbounds nuw %struct.ggml_backend_multi_buffer_context, ptr %12, i32 0, i32 1
  %14 = load i64, ptr %13, align 8, !tbaa !41
  %15 = icmp ult i64 %11, %14
  br i1 %15, label %17, label %16

16:                                               ; preds = %10
  call void @llvm.lifetime.end.p0(i64 8, ptr %6) #15
  br label %28

17:                                               ; preds = %10
  %18 = load ptr, ptr %5, align 8, !tbaa !39
  %19 = getelementptr inbounds nuw %struct.ggml_backend_multi_buffer_context, ptr %18, i32 0, i32 0
  %20 = load ptr, ptr %19, align 8, !tbaa !45
  %21 = load i64, ptr %6, align 8, !tbaa !12
  %22 = getelementptr inbounds nuw ptr, ptr %20, i64 %21
  %23 = load ptr, ptr %22, align 8, !tbaa !24
  %24 = load i8, ptr %4, align 1, !tbaa !36
  call void @ggml_backend_buffer_clear(ptr noundef %23, i8 noundef zeroext %24)
  br label %25

25:                                               ; preds = %17
  %26 = load i64, ptr %6, align 8, !tbaa !12
  %27 = add i64 %26, 1
  store i64 %27, ptr %6, align 8, !tbaa !12
  br label %10, !llvm.loop !262

28:                                               ; preds = %16
  call void @llvm.lifetime.end.p0(i64 8, ptr %5) #15
  ret void
}