; Function Attrs: mustprogress uwtable
define internal void @_ZL31ggml_backend_multi_buffer_clearP19ggml_backend_bufferh(ptr noundef readonly captures(none) %0, i8 noundef zeroext %1) #0 {
  %3 = getelementptr inbounds nuw i8, ptr %0, i64 80
  %4 = load ptr, ptr %3, align 8, !tbaa !19
  %5 = getelementptr inbounds nuw i8, ptr %4, i64 8
  %6 = load i64, ptr %5, align 8, !tbaa !31
  %.not = icmp eq i64 %6, 0
  br i1 %.not, label %._crit_edge, label %.lr.ph

._crit_edge:                                      ; preds = %ggml_backend_buffer_clear.exit, %2
  ret void

.lr.ph:                                           ; preds = %2, %ggml_backend_buffer_clear.exit
  %7 = phi i64 [ %17, %ggml_backend_buffer_clear.exit ], [ %6, %2 ]
  %.06 = phi i64 [ %18, %ggml_backend_buffer_clear.exit ], [ 0, %2 ]
  %8 = load ptr, ptr %4, align 8, !tbaa !35
  %9 = getelementptr inbounds nuw ptr, ptr %8, i64 %.06
  %10 = load ptr, ptr %9, align 8, !tbaa !36
  %11 = getelementptr inbounds nuw i8, ptr %10, i64 88
  %12 = load i64, ptr %11, align 8, !tbaa !20
  %13 = icmp eq i64 %12, 0
  br i1 %13, label %ggml_backend_buffer_clear.exit, label %14

14:                                               ; preds = %.lr.ph
  %15 = getelementptr inbounds nuw i8, ptr %10, i64 56
  %16 = load ptr, ptr %15, align 8, !tbaa !30
  tail call void %16(ptr noundef nonnull %10, i8 noundef zeroext %1)
  %.pre = load i64, ptr %5, align 8, !tbaa !31
  br label %ggml_backend_buffer_clear.exit

ggml_backend_buffer_clear.exit:                   ; preds = %.lr.ph, %14
  %17 = phi i64 [ %7, %.lr.ph ], [ %.pre, %14 ]
  %18 = add nuw i64 %.06, 1
  %19 = icmp ult i64 %18, %17
  br i1 %19, label %.lr.ph, label %._crit_edge, !llvm.loop !235
}